target datalayout = "e-m:e-p270:32:32-p271:32:32-p272:64:64-i64:64-i128:128-f80:128-n8:16:32:64-S128"
target triple = "x86_64-unknown-linux-gnu"

%"class.absl::lts_20230802::Status" = type { i64 }
%"class.grpc_core::DebugLocation" = type { i8 }

@.str = private unnamed_addr constant [135 x i8] c"generated/home/dtcxzyw/WorkSpace/Projects/compilers/llvm-opt-benchmark/bench/grpc/grpc/src/core/lib/iomgr/socket_utils_common_posix.cc\00", align 1
@.str.2 = private unnamed_addr constant [6 x i8] c"fcntl\00", align 1
@.str.29 = private unnamed_addr constant [114 x i8] c"generated/home/dtcxzyw/WorkSpace/Projects/compilers/llvm-opt-benchmark/bench/grpc/grpc/src/core/lib/iomgr/error.h\00", align 1
@.str.30 = private unnamed_addr constant [12 x i8] c"!error.ok()\00", align 1

; Function Attrs: noreturn nounwind uwtable
define linkonce_odr hidden void @__clang_call_terminate(ptr noundef %0) #9 comdat {
  %2 = call ptr @__cxa_begin_catch(ptr %0) #3
  call void @_ZSt9terminatev() #13
  unreachable
}

; Function Attrs: mustprogress nounwind uwtable
define linkonce_odr noundef i64 @_ZN4absl12lts_202308026Status12MovedFromRepEv() #5 comdat align 2 {
entry:
  %call = call noundef i64 @_ZN4absl12lts_202308026Status16CodeToInlinedRepENS0_10StatusCodeE(i32 noundef 13)
  %or = or i64 %call, 2
  ret i64 %or
}

; Function Attrs: mustprogress nounwind uwtable
define linkonce_odr noundef i64 @_ZN4absl12lts_202308026Status16CodeToInlinedRepENS0_10StatusCodeE(i32 noundef %code) #5 comdat align 2 {
entry:
  %code.addr = alloca i32, align 4
  store i32 %code, ptr %code.addr, align 4
  %0 = load i32, ptr %code.addr, align 4
  %conv = sext i32 %0 to i64
  %shl = shl i64 %conv, 2
  ret i64 %shl
}

; Function Attrs: mustprogress nounwind uwtable
define linkonce_odr void @_ZN4absl12lts_202308026StatusC2Ev(ptr noundef nonnull align 8 dereferenceable(8) %this) unnamed_addr #5 comdat align 2 {
entry:
  %this.addr = alloca ptr, align 8
  store ptr %this, ptr %this.addr, align 8
  %this1 = load ptr, ptr %this.addr, align 8
  %rep_ = getelementptr inbounds %"class.absl::lts_20230802::Status", ptr %this1, i32 0, i32 0
  %call = call noundef i64 @_ZN4absl12lts_202308026Status16CodeToInlinedRepENS0_10StatusCodeE(i32 noundef 0)
  store i64 %call, ptr %rep_, align 8
  ret void
}

; Function Attrs: mustprogress nounwind uwtable
define linkonce_odr void @_ZN4absl12lts_202308026StatusC2EOS1_(ptr noundef nonnull align 8 dereferenceable(8) %this, ptr noundef nonnull align 8 dereferenceable(8) %x) unnamed_addr #5 comdat align 2 personality ptr @__gxx_personality_v0 {
entry:
  %this.addr = alloca ptr, align 8
  %x.addr = alloca ptr, align 8
  store ptr %this, ptr %this.addr, align 8
  store ptr %x, ptr %x.addr, align 8
  %this1 = load ptr, ptr %this.addr, align 8
  %rep_ = getelementptr inbounds %"class.absl::lts_20230802::Status", ptr %this1, i32 0, i32 0
  %0 = load ptr, ptr %x.addr, align 8
  %rep_2 = getelementptr inbounds %"class.absl::lts_20230802::Status", ptr %0, i32 0, i32 0
  %1 = load i64, ptr %rep_2, align 8
  store i64 %1, ptr %rep_, align 8
  %call = invoke noundef i64 @_ZN4absl12lts_202308026Status12MovedFromRepEv()
          to label %invoke.cont unwind label %terminate.lpad

invoke.cont:                                      ; preds = %entry
  %2 = load ptr, ptr %x.addr, align 8
  %rep_3 = getelementptr inbounds %"class.absl::lts_20230802::Status", ptr %2, i32 0, i32 0
  store i64 %call, ptr %rep_3, align 8
  ret void

terminate.lpad:                                   ; preds = %entry
  %3 = landingpad { ptr, i32 }
          catch ptr null
  %4 = extractvalue { ptr, i32 } %3, 0
  call void @__clang_call_terminate(ptr %4) #13
  unreachable
}

; Function Attrs: mustprogress uwtable
define linkonce_odr noundef zeroext i1 @_ZNK4absl12lts_202308026Status2okEv(ptr noundef nonnull align 8 dereferenceable(8) %this) #4 comdat align 2 {
entry:
  %this.addr = alloca ptr, align 8
  store ptr %this, ptr %this.addr, align 8
  %this1 = load ptr, ptr %this.addr, align 8
  %rep_ = getelementptr inbounds %"class.absl::lts_20230802::Status", ptr %this1, i32 0, i32 0
  %0 = load i64, ptr %rep_, align 8
  %call = call noundef i64 @_ZN4absl12lts_202308026Status16CodeToInlinedRepENS0_10StatusCodeE(i32 noundef 0)
  %cmp = icmp eq i64 %0, %call
  ret i1 %cmp
}

; Function Attrs: mustprogress uwtable
define linkonce_odr void @_ZN4absl12lts_202308028OkStatusEv(ptr noalias sret(%"class.absl::lts_20230802::Status") align 8 %agg.result) #4 comdat {
entry:
  %result.ptr = alloca ptr, align 8
  store ptr %agg.result, ptr %result.ptr, align 8
  call void @_ZN4absl12lts_202308026StatusC2Ev(ptr noundef nonnull align 8 dereferenceable(8) %agg.result)
  ret void
}

; Function Attrs: mustprogress uwtable
define linkonce_odr void @_Z20grpc_assert_never_okN4absl12lts_202308026StatusE(ptr noalias sret(%"class.absl::lts_20230802::Status") align 8 %agg.result, ptr noundef %error) #4 comdat {
entry:
  %result.ptr = alloca ptr, align 8
  %error.indirect_addr = alloca ptr, align 8
  store ptr %agg.result, ptr %result.ptr, align 8
  store ptr %error, ptr %error.indirect_addr, align 8
  br label %do.body

do.body:                                          ; preds = %entry
  %call = call noundef zeroext i1 @_ZNK4absl12lts_202308026Status2okEv(ptr noundef nonnull align 8 dereferenceable(8) %error)
  %lnot = xor i1 %call, true
  %lnot1 = xor i1 %lnot, true
  br i1 %lnot1, label %if.then, label %if.end

if.then:                                          ; preds = %do.body
  call void @gpr_assertion_failed(ptr noundef @.str.29, i32 noundef 78, ptr noundef @.str.30) #12
  unreachable

if.end:                                           ; preds = %do.body
  br label %do.end

do.end:                                           ; preds = %if.end
  call void @_ZN4absl12lts_202308026StatusC2EOS1_(ptr noundef nonnull align 8 dereferenceable(8) %agg.result, ptr noundef nonnull align 8 dereferenceable(8) %error) #3
  ret void
}

; Function Attrs: mustprogress nounwind uwtable
define linkonce_odr void @_ZN9grpc_core13DebugLocationC2EPKci(ptr noundef nonnull align 1 dereferenceable(1) %this, ptr noundef %0, i32 noundef %1) unnamed_addr #5 comdat align 2 {
entry:
  %this.addr = alloca ptr, align 8
  %.addr = alloca ptr, align 8
  %.addr1 = alloca i32, align 4
  store ptr %this, ptr %this.addr, align 8
  store ptr %0, ptr %.addr, align 8
  store i32 %1, ptr %.addr1, align 4
  ret void
}

; Function Attrs: mustprogress uwtable
define void @_Z23grpc_set_socket_cloexecii(ptr noalias sret(%"class.absl::lts_20230802::Status") align 8 %agg.result, i32 noundef %fd, i32 noundef %close_on_exec) #4 personality ptr @__gxx_personality_v0 {
entry:
  %result.ptr = alloca ptr, align 8
  %fd.addr = alloca i32, align 4
  %close_on_exec.addr = alloca i32, align 4
  %oldflags = alloca i32, align 4
  %agg.tmp = alloca %"class.absl::lts_20230802::Status", align 8
  %ref.tmp = alloca %"class.grpc_core::DebugLocation", align 1
  %exn.slot = alloca ptr, align 8
  %ehselector.slot = alloca i32, align 4
  %agg.tmp7 = alloca %"class.absl::lts_20230802::Status", align 8
  %ref.tmp8 = alloca %"class.grpc_core::DebugLocation", align 1
  store ptr %agg.result, ptr %result.ptr, align 8
  store i32 %fd, ptr %fd.addr, align 4
  store i32 %close_on_exec, ptr %close_on_exec.addr, align 4
  %0 = load i32, ptr %fd.addr, align 4
  %call = call i32 (i32, i32, ...) @fcntl(i32 noundef %0, i32 noundef 1, i32 noundef 0)
  store i32 %call, ptr %oldflags, align 4
  %1 = load i32, ptr %oldflags, align 4
  %cmp = icmp slt i32 %1, 0
  br i1 %cmp, label %if.then, label %if.end

if.then:                                          ; preds = %entry
  call void @_ZN9grpc_core13DebugLocationC2EPKci(ptr noundef nonnull align 1 dereferenceable(1) %ref.tmp, ptr noundef @.str, i32 noundef 157)
  %call1 = call ptr @__errno_location() #11
  %2 = load i32, ptr %call1, align 4
  call void @_Z13grpc_os_errorRKN9grpc_core13DebugLocationEiPKc(ptr sret(%"class.absl::lts_20230802::Status") align 8 %agg.tmp, ptr noundef nonnull align 1 dereferenceable(1) %ref.tmp, i32 noundef %2, ptr noundef @.str.2)
  invoke void @_Z20grpc_assert_never_okN4absl12lts_202308026StatusE(ptr sret(%"class.absl::lts_20230802::Status") align 8 %agg.result, ptr noundef %agg.tmp)
          to label %invoke.cont unwind label %lpad

invoke.cont:                                      ; preds = %if.then
  call void @_ZN4absl12lts_202308026StatusD2Ev(ptr noundef nonnull align 8 dereferenceable(8) %agg.tmp) #3
  br label %return

lpad:                                             ; preds = %if.then
  %3 = landingpad { ptr, i32 }
          cleanup
  %4 = extractvalue { ptr, i32 } %3, 0
  store ptr %4, ptr %exn.slot, align 8
  %5 = extractvalue { ptr, i32 } %3, 1
  store i32 %5, ptr %ehselector.slot, align 4
  call void @_ZN4absl12lts_202308026StatusD2Ev(ptr noundef nonnull align 8 dereferenceable(8) %agg.tmp) #3
  br label %eh.resume

if.end:                                           ; preds = %entry
  %6 = load i32, ptr %close_on_exec.addr, align 4
  %tobool = icmp ne i32 %6, 0
  br i1 %tobool, label %if.then2, label %if.else

if.then2:                                         ; preds = %if.end
  %7 = load i32, ptr %oldflags, align 4
  %or = or i32 %7, 1
  store i32 %or, ptr %oldflags, align 4
  br label %if.end3

if.else:                                          ; preds = %if.end
  %8 = load i32, ptr %oldflags, align 4
  %and = and i32 %8, -2
  store i32 %and, ptr %oldflags, align 4
  br label %if.end3

if.end3:                                          ; preds = %if.else, %if.then2
  %9 = load i32, ptr %fd.addr, align 4
  %10 = load i32, ptr %oldflags, align 4
  %call4 = call i32 (i32, i32, ...) @fcntl(i32 noundef %9, i32 noundef 2, i32 noundef %10)
  %cmp5 = icmp ne i32 %call4, 0
  br i1 %cmp5, label %if.then6, label %if.end12

if.then6:                                         ; preds = %if.end3
  call void @_ZN9grpc_core13DebugLocationC2EPKci(ptr noundef nonnull align 1 dereferenceable(1) %ref.tmp8, ptr noundef @.str, i32 noundef 167)
  %call9 = call ptr @__errno_location() #11
  %11 = load i32, ptr %call9, align 4
  call void @_Z13grpc_os_errorRKN9grpc_core13DebugLocationEiPKc(ptr sret(%"class.absl::lts_20230802::Status") align 8 %agg.tmp7, ptr noundef nonnull align 1 dereferenceable(1) %ref.tmp8, i32 noundef %11, ptr noundef @.str.2)
  invoke void @_Z20grpc_assert_never_okN4absl12lts_202308026StatusE(ptr sret(%"class.absl::lts_20230802::Status") align 8 %agg.result, ptr noundef %agg.tmp7)
          to label %invoke.cont11 unwind label %lpad10

invoke.cont11:                                    ; preds = %if.then6
  call void @_ZN4absl12lts_202308026StatusD2Ev(ptr noundef nonnull align 8 dereferenceable(8) %agg.tmp7) #3
  br label %return

lpad10:                                           ; preds = %if.then6
  %12 = landingpad { ptr, i32 }
          cleanup
  %13 = extractvalue { ptr, i32 } %12, 0
  store ptr %13, ptr %exn.slot, align 8
  %14 = extractvalue { ptr, i32 } %12, 1
  store i32 %14, ptr %ehselector.slot, align 4
  call void @_ZN4absl12lts_202308026StatusD2Ev(ptr noundef nonnull align 8 dereferenceable(8) %agg.tmp7) #3
  br label %eh.resume

if.end12:                                         ; preds = %if.end3
  call void @_ZN4absl12lts_202308028OkStatusEv(ptr sret(%"class.absl::lts_20230802::Status") align 8 %agg.result)
  br label %return

return:                                           ; preds = %if.end12, %invoke.cont11, %invoke.cont
  ret void

eh.resume:                                        ; preds = %lpad10, %lpad
  %exn = load ptr, ptr %exn.slot, align 8
  %sel = load i32, ptr %ehselector.slot, align 4
  %lpad.val = insertvalue { ptr, i32 } poison, ptr %exn, 0
  %lpad.val13 = insertvalue { ptr, i32 } %lpad.val, i32 %sel, 1
  resume { ptr, i32 } %lpad.val13
}